; Function Attrs: inlinehint nounwind uwtable
define internal fastcc void @"_ZZN9grpc_core22LegacyClientAuthFilter20GetCallCredsMetadataENS_8CallArgsEEN3$_1D2Ev"(ptr noundef nonnull align 8 captures(none) dereferenceable(56) %0) unnamed_addr #11 align 2 personality ptr @__gxx_personality_v0 {
  %2 = getelementptr inbounds nuw i8, ptr %0, i64 16
  %3 = load ptr, ptr %2, align 8, !tbaa !59
  %.not.i.i = icmp eq ptr %3, null
  br i1 %.not.i.i, label %_ZN9grpc_core37ClientInitialMetadataOutstandingTokenD2Ev.exit.i, label %4

4:                                                ; preds = %1
  store i8 0, ptr %3, align 2, !tbaa !110
  %5 = getelementptr inbounds nuw i8, ptr %3, i64 1
  store i8 1, ptr %5, align 1, !tbaa !113
  %6 = getelementptr inbounds nuw i8, ptr %3, i64 2
  %7 = load i16, ptr %6, align 2, !tbaa !114
  %8 = icmp eq i16 %7, 0
  br i1 %8, label %_ZN9grpc_core37ClientInitialMetadataOutstandingTokenD2Ev.exit.i, label %9

9:                                                ; preds = %4
  %.not.i.i.i.i.i.i.i.i = icmp eq ptr @_ZTHN9grpc_core8Activity19g_current_activity_E, null
  br i1 %.not.i.i.i.i.i.i.i.i, label %_ZN9grpc_core14promise_detail7ContextINS_8ActivityEvE3getEv.exit.i.i.i.i, label %10

10:                                               ; preds = %9
  invoke void @_ZTHN9grpc_core8Activity19g_current_activity_E()
          to label %.noexc.i.i unwind label %17

.noexc.i.i:                                       ; preds = %10
  %.pre.i.i.i.i = load i16, ptr %6, align 2, !tbaa !25
  br label %_ZN9grpc_core14promise_detail7ContextINS_8ActivityEvE3getEv.exit.i.i.i.i

_ZN9grpc_core14promise_detail7ContextINS_8ActivityEvE3getEv.exit.i.i.i.i: ; preds = %.noexc.i.i, %9
  %11 = phi i16 [ %7, %9 ], [ %.pre.i.i.i.i, %.noexc.i.i ]
  %12 = tail call noundef nonnull align 8 dereferenceable(8) ptr @llvm.threadlocal.address.p0(ptr align 8 @_ZN9grpc_core8Activity19g_current_activity_E)
  %13 = load ptr, ptr %12, align 8, !tbaa !115
  store i16 0, ptr %6, align 2, !tbaa !25
  %14 = load ptr, ptr %13, align 8, !tbaa !18
  %15 = getelementptr inbounds nuw i8, ptr %14, i64 24
  %16 = load ptr, ptr %15, align 8
  invoke void %16(ptr noundef nonnull align 8 dereferenceable(8) %13, i16 noundef zeroext %11)
          to label %_ZN9grpc_core37ClientInitialMetadataOutstandingTokenD2Ev.exit.i unwind label %17

17:                                               ; preds = %_ZN9grpc_core14promise_detail7ContextINS_8ActivityEvE3getEv.exit.i.i.i.i, %10
  %18 = landingpad { ptr, i32 }
          catch ptr null
  %19 = extractvalue { ptr, i32 } %18, 0
  tail call void @__clang_call_terminate(ptr %19) #35
  unreachable

_ZN9grpc_core37ClientInitialMetadataOutstandingTokenD2Ev.exit.i: ; preds = %_ZN9grpc_core14promise_detail7ContextINS_8ActivityEvE3getEv.exit.i.i.i.i, %4, %1
  %20 = getelementptr inbounds nuw i8, ptr %0, i64 8
  %21 = load ptr, ptr %20, align 8, !tbaa !52
  %.not.i1.i = icmp eq ptr %21, null
  br i1 %.not.i1.i, label %_ZN9grpc_core8CallArgsD2Ev.exit, label %22

22:                                               ; preds = %_ZN9grpc_core37ClientInitialMetadataOutstandingTokenD2Ev.exit.i
  %23 = load i8, ptr %0, align 8, !tbaa !104, !range !106, !noundef !35
  %24 = trunc nuw i8 %23 to i1
  br i1 %24, label %25, label %_ZN9grpc_core8CallArgsD2Ev.exit

25:                                               ; preds = %22
  tail call void @_ZN9grpc_core11MetadataMapI19grpc_metadata_batchJNS_16HttpPathMetadataENS_21HttpAuthorityMetadataENS_18HttpMethodMetadataENS_18HttpStatusMetadataENS_18HttpSchemeMetadataENS_19ContentTypeMetadataENS_10TeMetadataENS_20GrpcEncodingMetadataENS_27GrpcInternalEncodingRequestENS_26GrpcAcceptEncodingMetadataENS_18GrpcStatusMetadataENS_19GrpcTimeoutMetadataENS_31GrpcPreviousRpcAttemptsMetadataENS_27GrpcRetryPushbackMsMetadataENS_17UserAgentMetadataENS_19GrpcMessageMetadataENS_12HostMetadataENS_30EndpointLoadMetricsBinMetadataENS_26GrpcServerStatsBinMetadataENS_20GrpcTraceBinMetadataENS_19GrpcTagsBinMetadataENS_25GrpcLbClientStatsMetadataENS_17LbCostBinMetadataENS_15LbTokenMetadataENS_18XEnvoyPeerMetadataENS_22W3CTraceParentMetadataENS_22GrpcStreamNetworkStateENS_10PeerStringENS_17GrpcStatusContextENS_18GrpcStatusFromWireENS_20GrpcCallWasCancelledENS_12WaitForReadyENS_18IsTransparentRetryENS_16GrpcTrailersOnlyENS_10GrpcTarPitENS_20GrpcRegisteredMethodEEED2Ev(ptr noundef nonnull align 8 dereferenceable(600) %21) #33
  tail call void @_ZdlPvm(ptr noundef nonnull %21, i64 noundef 600) #34
  br label %_ZN9grpc_core8CallArgsD2Ev.exit

_ZN9grpc_core8CallArgsD2Ev.exit:                  ; preds = %_ZN9grpc_core37ClientInitialMetadataOutstandingTokenD2Ev.exit.i, %22, %25
  store ptr null, ptr %20, align 8, !tbaa !52
  ret void
}